; Function Attrs: mustprogress uwtable
define noundef zeroext i1 @_ZNK32pxrInternal_v0_24__pxrReserved__16UsdGeomXformable24GetTimeSamplesInIntervalERKNS_10GfIntervalEPSt6vectorIdSaIdEE(ptr noundef nonnull align 8 dereferenceable(24) %0, ptr noundef nonnull align 8 dereferenceable(32) %1, ptr noundef %2) local_unnamed_addr #0 align 2 personality ptr @__gxx_personality_v0 {
  %4 = alloca %class.anon.142, align 1
  %5 = alloca i8, align 1
  %6 = alloca %"class.std::vector.98", align 8
  store i8 0, ptr %5, align 1
  call void @_ZNK32pxrInternal_v0_24__pxrReserved__16UsdGeomXformable19_GetOrderedXformOpsEPbb(ptr dead_on_unwind nonnull writable sret(%"class.std::vector.98") align 8 %6, ptr noundef nonnull align 8 dereferenceable(24) %0, ptr noundef nonnull %5, i1 noundef zeroext false)
  %7 = invoke noundef zeroext i1 @_ZN32pxrInternal_v0_24__pxrReserved__16UsdGeomXformable24GetTimeSamplesInIntervalERKSt6vectorINS_14UsdGeomXformOpESaIS2_EERKNS_10GfIntervalEPS1_IdSaIdEE(ptr noundef nonnull align 8 dereferenceable(24) %6, ptr noundef nonnull align 8 dereferenceable(32) %1, ptr noundef %2)
          to label %8 unwind label %26

8:                                                ; preds = %3
  %9 = load ptr, ptr %6, align 8
  %10 = getelementptr inbounds nuw i8, ptr %6, i64 8
  %11 = load ptr, ptr %10, align 8
  %.not4.i.i.i.i = icmp eq ptr %9, %11
  br i1 %.not4.i.i.i.i, label %_ZSt8_DestroyIPN32pxrInternal_v0_24__pxrReserved__14UsdGeomXformOpES1_EvT_S3_RSaIT0_E.exit.i, label %.lr.ph.i.i.i.i

.lr.ph.i.i.i.i:                                   ; preds = %8, %_ZSt8_DestroyIN32pxrInternal_v0_24__pxrReserved__14UsdGeomXformOpEEvPT_.exit.i.i.i.i
  %.05.i.i.i.i = phi ptr [ %18, %_ZSt8_DestroyIN32pxrInternal_v0_24__pxrReserved__14UsdGeomXformOpEEvPT_.exit.i.i.i.i ], [ %9, %8 ]
  call void @llvm.lifetime.start.p0(i64 1, ptr nonnull %4)
  %12 = getelementptr inbounds nuw i8, ptr %.05.i.i.i.i, i64 120
  %13 = load i8, ptr %12, align 8
  %.not.i.i.i.i.i.i.i.i.i.i.i.i.i.i = icmp eq i8 %13, -1
  br i1 %.not.i.i.i.i.i.i.i.i.i.i.i.i.i.i, label %_ZSt8_DestroyIN32pxrInternal_v0_24__pxrReserved__14UsdGeomXformOpEEvPT_.exit.i.i.i.i, label %14

14:                                               ; preds = %.lr.ph.i.i.i.i
  invoke void @_ZSt10__do_visitIvZNSt8__detail9__variant16_Variant_storageILb0EJN32pxrInternal_v0_24__pxrReserved__12UsdAttributeENS3_17UsdAttributeQueryEEE8_M_resetEvEUlOT_E_JRSt7variantIJS4_S5_EEEEDcOT0_DpOT1_(ptr noundef nonnull align 1 dereferenceable(1) %4, ptr noundef nonnull align 8 dereferenceable(121) %.05.i.i.i.i)
          to label %.noexc.i.i.i.i.i.i.i.i.i.i.i.i.i unwind label %15

.noexc.i.i.i.i.i.i.i.i.i.i.i.i.i:                 ; preds = %14
  store i8 -1, ptr %12, align 8
  br label %_ZSt8_DestroyIN32pxrInternal_v0_24__pxrReserved__14UsdGeomXformOpEEvPT_.exit.i.i.i.i

15:                                               ; preds = %14
  %16 = landingpad { ptr, i32 }
          catch ptr null
  %17 = extractvalue { ptr, i32 } %16, 0
  call void @__clang_call_terminate(ptr %17) #22
  unreachable

_ZSt8_DestroyIN32pxrInternal_v0_24__pxrReserved__14UsdGeomXformOpEEvPT_.exit.i.i.i.i: ; preds = %.noexc.i.i.i.i.i.i.i.i.i.i.i.i.i, %.lr.ph.i.i.i.i
  call void @llvm.lifetime.end.p0(i64 1, ptr nonnull %4)
  %18 = getelementptr inbounds i8, ptr %.05.i.i.i.i, i64 136
  %.not.i.i.i.i = icmp eq ptr %18, %11
  br i1 %.not.i.i.i.i, label %_ZSt8_DestroyIPN32pxrInternal_v0_24__pxrReserved__14UsdGeomXformOpES1_EvT_S3_RSaIT0_E.exitthread-pre-split.i, label %.lr.ph.i.i.i.i, !llvm.loop !24

_ZSt8_DestroyIPN32pxrInternal_v0_24__pxrReserved__14UsdGeomXformOpES1_EvT_S3_RSaIT0_E.exitthread-pre-split.i: ; preds = %_ZSt8_DestroyIN32pxrInternal_v0_24__pxrReserved__14UsdGeomXformOpEEvPT_.exit.i.i.i.i
  %.pr.i = load ptr, ptr %6, align 8
  br label %_ZSt8_DestroyIPN32pxrInternal_v0_24__pxrReserved__14UsdGeomXformOpES1_EvT_S3_RSaIT0_E.exit.i

_ZSt8_DestroyIPN32pxrInternal_v0_24__pxrReserved__14UsdGeomXformOpES1_EvT_S3_RSaIT0_E.exit.i: ; preds = %_ZSt8_DestroyIPN32pxrInternal_v0_24__pxrReserved__14UsdGeomXformOpES1_EvT_S3_RSaIT0_E.exitthread-pre-split.i, %8
  %19 = phi ptr [ %.pr.i, %_ZSt8_DestroyIPN32pxrInternal_v0_24__pxrReserved__14UsdGeomXformOpES1_EvT_S3_RSaIT0_E.exitthread-pre-split.i ], [ %9, %8 ]
  %.not.i.i.i = icmp eq ptr %19, null
  br i1 %.not.i.i.i, label %_ZNSt6vectorIN32pxrInternal_v0_24__pxrReserved__14UsdGeomXformOpESaIS1_EED2Ev.exit, label %20

20:                                               ; preds = %_ZSt8_DestroyIPN32pxrInternal_v0_24__pxrReserved__14UsdGeomXformOpES1_EvT_S3_RSaIT0_E.exit.i
  %21 = getelementptr inbounds nuw i8, ptr %6, i64 16
  %22 = load ptr, ptr %21, align 8
  %23 = ptrtoint ptr %22 to i64
  %24 = ptrtoint ptr %19 to i64
  %25 = sub i64 %23, %24
  call void @_ZdlPvm(ptr noundef nonnull %19, i64 noundef %25) #21
  br label %_ZNSt6vectorIN32pxrInternal_v0_24__pxrReserved__14UsdGeomXformOpESaIS1_EED2Ev.exit

_ZNSt6vectorIN32pxrInternal_v0_24__pxrReserved__14UsdGeomXformOpESaIS1_EED2Ev.exit: ; preds = %_ZSt8_DestroyIPN32pxrInternal_v0_24__pxrReserved__14UsdGeomXformOpES1_EvT_S3_RSaIT0_E.exit.i, %20
  ret i1 %7

26:                                               ; preds = %3
  %27 = landingpad { ptr, i32 }
          cleanup
  call void @_ZNSt6vectorIN32pxrInternal_v0_24__pxrReserved__14UsdGeomXformOpESaIS1_EED2Ev(ptr noundef nonnull align 8 dereferenceable(24) %6) #20
  resume { ptr, i32 } %27
}